; Function Attrs: mustprogress nounwind uwtable
define internal fastcc void @_ZNSt10unique_ptrIN3pro7details11compact_ptrIN5utils15LifetimeTracker7SessionENSt3pmr21polymorphic_allocatorISt4byteEEE7storageEZNS1_L8allocateISB_S9_JRKS9_PS4_EEEPT_RKT0_DpOT1_EUlPSB_E_ED2Ev(ptr nocapture noundef nonnull align 8 dereferenceable(16) %0) unnamed_addr #6 align 2 personality ptr @__gxx_personality_v0 {
  %2 = getelementptr inbounds i8, ptr %0, i64 8
  %3 = load ptr, ptr %2, align 8
  %.not = icmp eq ptr %3, null
  br i1 %.not, label %_ZZN3pro7detailsL8allocateINS0_11compact_ptrIN5utils15LifetimeTracker7SessionENSt3pmr21polymorphic_allocatorISt4byteEEE7storageES9_JRKS9_PS4_EEEPT_RKT0_DpOT1_ENKUlPSB_E_clESN_.exit, label %4

4:                                                ; preds = %1
  %.val = load ptr, ptr %0, align 8
  %.val.val = load ptr, ptr %.val, align 8
  %5 = load ptr, ptr %.val.val, align 8
  %6 = getelementptr inbounds i8, ptr %5, i64 24
  %7 = load ptr, ptr %6, align 8
  invoke void %7(ptr noundef nonnull align 8 dereferenceable(8) %.val.val, ptr noundef nonnull %3, i64 noundef 24, i64 noundef 8)
          to label %_ZZN3pro7detailsL8allocateINS0_11compact_ptrIN5utils15LifetimeTracker7SessionENSt3pmr21polymorphic_allocatorISt4byteEEE7storageES9_JRKS9_PS4_EEEPT_RKT0_DpOT1_ENKUlPSB_E_clESN_.exit unwind label %8

8:                                                ; preds = %4
  %9 = landingpad { ptr, i32 }
          catch ptr null
  %10 = extractvalue { ptr, i32 } %9, 0
  tail call void @__clang_call_terminate(ptr %10) #22
  unreachable

_ZZN3pro7detailsL8allocateINS0_11compact_ptrIN5utils15LifetimeTracker7SessionENSt3pmr21polymorphic_allocatorISt4byteEEE7storageES9_JRKS9_PS4_EEEPT_RKT0_DpOT1_ENKUlPSB_E_clESN_.exit: ; preds = %4, %1
  store ptr null, ptr %2, align 8
  ret void
}